; Function Attrs: nofree norecurse nosync nounwind memory(argmem: write) uwtable
define internal void @setup_column(i32 noundef %0, ptr noundef writeonly captures(none) %1, ptr noundef %2, i32 noundef %3, i32 noundef %4, i32 %5, i32 noundef %6, i32 noundef %7, i32 noundef %8) #7 {
  %.not28 = icmp slt i32 %0, 0
  br i1 %.not28, label %._crit_edge, label %.lr.ph

.lr.ph:                                           ; preds = %9
  %10 = shl nuw i32 %0, 1
  %11 = sub i32 %4, %0
  %12 = shl nsw i32 %7, 1
  %13 = mul nsw i32 %8, %6
  %14 = sext i32 %13 to i64
  %15 = getelementptr inbounds i8, ptr %2, i64 %14
  %smax = tail call i32 @llvm.smax.i32(i32 %10, i32 0)
  %16 = or disjoint i32 %smax, 1
  %wide.trip.count = zext nneg i32 %16 to i64
  br label %17

17:                                               ; preds = %.lr.ph, %17
  %indvars.iv = phi i64 [ 0, %.lr.ph ], [ %indvars.iv.next, %17 ]
  %18 = trunc nuw nsw i64 %indvars.iv to i32
  %19 = add i32 %11, %18
  %20 = tail call i32 @llvm.abs.i32(i32 %19, i1 true)
  %.not27 = icmp slt i32 %20, %7
  %21 = xor i32 %20, -1
  %22 = add i32 %12, %21
  %23 = select i1 %.not27, i32 %20, i32 %22
  %24 = mul nsw i32 %23, %3
  %25 = sext i32 %24 to i64
  %26 = getelementptr inbounds i8, ptr %15, i64 %25
  %27 = getelementptr inbounds nuw ptr, ptr %1, i64 %indvars.iv
  store ptr %26, ptr %27, align 8, !tbaa !46
  %indvars.iv.next = add nuw nsw i64 %indvars.iv, 1
  %exitcond.not = icmp eq i64 %indvars.iv.next, %wide.trip.count
  br i1 %exitcond.not, label %._crit_edge, label %17, !llvm.loop !90

._crit_edge:                                      ; preds = %17, %9
  ret void
}